target datalayout = "e-m:e-p270:32:32-p271:32:32-p272:64:64-i64:64-i128:128-f80:128-n8:16:32:64-S128"
target triple = "x86_64-pc-linux-gnu"

%struct.diff_queue_struct = type { ptr, i32, i32 }
%struct.strbuf = type { i64, i64, ptr }
%struct.index_state = type { ptr, i32, i32, i32, i32, ptr, ptr, ptr, %struct.cache_time, i8, i32, %struct.hashmap, %struct.hashmap, %struct.object_id, ptr, ptr, ptr, ptr, ptr, ptr, ptr }
%struct.cache_time = type { i32, i32 }
%struct.hashmap = type { ptr, ptr, ptr, i32, i32, i32, i32, i8 }
%struct.object_id = type { [32 x i8], i32 }
%struct.cache_entry = type { %struct.hashmap_entry, %struct.stat_data, i32, i32, i32, i32, i32, %struct.object_id, [0 x i8] }
%struct.hashmap_entry = type { ptr, i32 }
%struct.stat_data = type { %struct.cache_time, %struct.cache_time, i32, i32, i32, i32, i32 }
%struct.repository = type { ptr, ptr, ptr, ptr, ptr, %struct.strmap, %struct.strmap, %struct.repo_path_cache, ptr, ptr, ptr, ptr, %struct.repo_settings, ptr, ptr, ptr, ptr, ptr, ptr, i32, i32, i32, ptr, ptr, i32, i32, i8 }
%struct.strmap = type { %struct.hashmap, ptr, i8 }
%struct.repo_path_cache = type { ptr, ptr, ptr, ptr, ptr, ptr, ptr }
%struct.repo_settings = type { i32, i32, i32, i32, i32, i32, i32, i32, i32, i32, i32, i32, ptr, i32, i32, i32, i32, i32, i32, i32, i64, i64, i64 }
%struct.diff_options = type { ptr, ptr, i32, i32, ptr, i32, ptr, i64, i64, ptr, ptr, ptr, ptr, %struct.diff_flags, i32, i32, i32, i32, i32, i32, i32, i32, i32, i32, i32, i32, i32, i32, i32, i32, i32, i32, i32, i32, i32, i32, ptr, i32, ptr, i32, i32, ptr, i64, i64, i32, i32, i32, i32, ptr, i32, i32, ptr, i32, i32, ptr, ptr, i32, [3 x i8], %struct.pathspec, ptr, ptr, ptr, ptr, ptr, ptr, ptr, ptr, i32, ptr, i32, i32, ptr, ptr, i32 }
%struct.diff_flags = type { i32, i32, i32, i32, i32, i32, i32, i32, i32, i32, i32, i32, i32, i32, i32, i32, i32, i32, i32, i32, i32, i32, i32, i32, i32, i32, i32, i32, i32, i32, i32, i32, i32, i32, i32 }
%struct.pathspec = type { i32, i8, i32, i32, ptr }
%struct.tree = type { %struct.object, ptr, i64 }
%struct.object = type { i32, %struct.object_id }
%struct.diff_filepair = type { ptr, ptr, i16, i8, i8 }
%struct.diff_filespec = type { %struct.object_id, ptr, ptr, ptr, i64, i32, i32, i16, i16, ptr }

@.str.3 = private unnamed_addr constant [5 x i8] c"HEAD\00", align 1
@diff_queued_diff = external global %struct.diff_queue_struct, align 8

; Function Attrs: inlinehint nounwind uwtable
define internal i64 @strbuf_avail(ptr noundef %0) #3 {
  %2 = alloca ptr, align 8
  store ptr %0, ptr %2, align 8, !tbaa !164
  %3 = load ptr, ptr %2, align 8, !tbaa !164
  %4 = getelementptr inbounds nuw %struct.strbuf, ptr %3, i32 0, i32 0
  %5 = load i64, ptr %4, align 8, !tbaa !286
  %6 = icmp ne i64 %5, 0
  br i1 %6, label %7, label %16

7:                                                ; preds = %1
  %8 = load ptr, ptr %2, align 8, !tbaa !164
  %9 = getelementptr inbounds nuw %struct.strbuf, ptr %8, i32 0, i32 0
  %10 = load i64, ptr %9, align 8, !tbaa !286
  %11 = load ptr, ptr %2, align 8, !tbaa !164
  %12 = getelementptr inbounds nuw %struct.strbuf, ptr %11, i32 0, i32 1
  %13 = load i64, ptr %12, align 8, !tbaa !197
  %14 = sub i64 %10, %13
  %15 = sub i64 %14, 1
  br label %17

16:                                               ; preds = %1
  br label %17

17:                                               ; preds = %16, %7
  %18 = phi i64 [ %15, %7 ], [ 0, %16 ]
  ret i64 %18
}

; Function Attrs: inlinehint nounwind uwtable
define internal void @strbuf_addstr(ptr noundef %0, ptr noundef %1) #3 {
  %3 = alloca ptr, align 8
  %4 = alloca ptr, align 8
  store ptr %0, ptr %3, align 8, !tbaa !164
  store ptr %1, ptr %4, align 8, !tbaa !11
  %5 = load ptr, ptr %3, align 8, !tbaa !164
  %6 = load ptr, ptr %4, align 8, !tbaa !11
  %7 = load ptr, ptr %4, align 8, !tbaa !11
  %8 = call i64 @strlen(ptr noundef %7) #13
  call void @strbuf_add(ptr noundef %5, ptr noundef %6, i64 noundef %8)
  ret void
}

; Function Attrs: inlinehint nounwind uwtable
define internal void @strbuf_addch(ptr noundef %0, i32 noundef %1) #3 {
  %3 = alloca ptr, align 8
  %4 = alloca i32, align 4
  store ptr %0, ptr %3, align 8, !tbaa !164
  store i32 %1, ptr %4, align 4, !tbaa !9
  %5 = load ptr, ptr %3, align 8, !tbaa !164
  %6 = call i64 @strbuf_avail(ptr noundef %5)
  %7 = icmp ne i64 %6, 0
  br i1 %7, label %10, label %8

8:                                                ; preds = %2
  %9 = load ptr, ptr %3, align 8, !tbaa !164
  call void @strbuf_grow(ptr noundef %9, i64 noundef 1)
  br label %10

10:                                               ; preds = %8, %2
  %11 = load i32, ptr %4, align 4, !tbaa !9
  %12 = trunc i32 %11 to i8
  %13 = load ptr, ptr %3, align 8, !tbaa !164
  %14 = getelementptr inbounds nuw %struct.strbuf, ptr %13, i32 0, i32 2
  %15 = load ptr, ptr %14, align 8, !tbaa !195
  %16 = load ptr, ptr %3, align 8, !tbaa !164
  %17 = getelementptr inbounds nuw %struct.strbuf, ptr %16, i32 0, i32 1
  %18 = load i64, ptr %17, align 8, !tbaa !197
  %19 = add i64 %18, 1
  store i64 %19, ptr %17, align 8, !tbaa !197
  %20 = getelementptr inbounds nuw i8, ptr %15, i64 %18
  store i8 %12, ptr %20, align 1, !tbaa !73
  %21 = load ptr, ptr %3, align 8, !tbaa !164
  %22 = getelementptr inbounds nuw %struct.strbuf, ptr %21, i32 0, i32 2
  %23 = load ptr, ptr %22, align 8, !tbaa !195
  %24 = load ptr, ptr %3, align 8, !tbaa !164
  %25 = getelementptr inbounds nuw %struct.strbuf, ptr %24, i32 0, i32 1
  %26 = load i64, ptr %25, align 8, !tbaa !197
  %27 = getelementptr inbounds nuw i8, ptr %23, i64 %26
  store i8 0, ptr %27, align 1, !tbaa !73
  ret void
}

; Function Attrs: nounwind uwtable
define dso_local i32 @repo_index_has_changes(ptr noundef %0, ptr noundef %1, ptr noundef %2) #0 {
  %4 = alloca i32, align 4
  %5 = alloca ptr, align 8
  %6 = alloca ptr, align 8
  %7 = alloca ptr, align 8
  %8 = alloca ptr, align 8
  %9 = alloca %struct.object_id, align 4
  %10 = alloca i32, align 4
  %11 = alloca %struct.diff_options, align 8
  %12 = alloca i32, align 4
  store ptr %0, ptr %5, align 8, !tbaa !48
  store ptr %1, ptr %6, align 8, !tbaa !162
  store ptr %2, ptr %7, align 8, !tbaa !164
  call void @llvm.lifetime.start.p0(i64 8, ptr %8) #12
  %13 = load ptr, ptr %5, align 8, !tbaa !48
  %14 = getelementptr inbounds nuw %struct.repository, ptr %13, i32 0, i32 15
  %15 = load ptr, ptr %14, align 8, !tbaa !88
  store ptr %15, ptr %8, align 8, !tbaa !4
  call void @llvm.lifetime.start.p0(i64 36, ptr %9) #12
  call void @llvm.lifetime.start.p0(i64 4, ptr %10) #12
  %16 = load ptr, ptr %6, align 8, !tbaa !162
  %17 = icmp ne ptr %16, null
  br i1 %17, label %18, label %22

18:                                               ; preds = %3
  %19 = load ptr, ptr %6, align 8, !tbaa !162
  %20 = getelementptr inbounds nuw %struct.tree, ptr %19, i32 0, i32 0
  %21 = getelementptr inbounds nuw %struct.object, ptr %20, i32 0, i32 1
  call void @llvm.memcpy.p0.p0.i64(ptr align 4 %9, ptr align 4 %21, i64 36, i1 false), !tbaa.struct !166
  br label %22

22:                                               ; preds = %18, %3
  %23 = load ptr, ptr %6, align 8, !tbaa !162
  %24 = icmp ne ptr %23, null
  br i1 %24, label %29, label %25

25:                                               ; preds = %22
  %26 = load ptr, ptr %5, align 8, !tbaa !48
  %27 = call i32 @repo_get_oid_tree(ptr noundef %26, ptr noundef @.str.3, ptr noundef %9)
  %28 = icmp ne i32 %27, 0
  br i1 %28, label %74, label %29

29:                                               ; preds = %25, %22
  call void @llvm.lifetime.start.p0(i64 592, ptr %11) #12
  %30 = load ptr, ptr %5, align 8, !tbaa !48
  call void @repo_diff_setup(ptr noundef %30, ptr noundef %11)
  %31 = getelementptr inbounds nuw %struct.diff_options, ptr %11, i32 0, i32 13
  %32 = getelementptr inbounds nuw %struct.diff_flags, ptr %31, i32 0, i32 13
  store i32 1, ptr %32, align 4, !tbaa !167
  %33 = load ptr, ptr %7, align 8, !tbaa !164
  %34 = icmp ne ptr %33, null
  br i1 %34, label %38, label %35

35:                                               ; preds = %29
  %36 = getelementptr inbounds nuw %struct.diff_options, ptr %11, i32 0, i32 13
  %37 = getelementptr inbounds nuw %struct.diff_flags, ptr %36, i32 0, i32 10
  store i32 1, ptr %37, align 8, !tbaa !178
  br label %38

38:                                               ; preds = %35, %29
  call void @diff_setup_done(ptr noundef %11)
  %39 = call i32 @do_diff_cache(ptr noundef %9, ptr noundef %11)
  call void @diffcore_std(ptr noundef %11)
  store i32 0, ptr %10, align 4, !tbaa !9
  br label %40

40:                                               ; preds = %65, %38
  %41 = load ptr, ptr %7, align 8, !tbaa !164
  %42 = icmp ne ptr %41, null
  br i1 %42, label %43, label %47

43:                                               ; preds = %40
  %44 = load i32, ptr %10, align 4, !tbaa !9
  %45 = load i32, ptr getelementptr inbounds nuw (%struct.diff_queue_struct, ptr @diff_queued_diff, i32 0, i32 2), align 4, !tbaa !179
  %46 = icmp slt i32 %44, %45
  br label %47

47:                                               ; preds = %43, %40
  %48 = phi i1 [ false, %40 ], [ %46, %43 ]
  br i1 %48, label %49, label %68

49:                                               ; preds = %47
  %50 = load i32, ptr %10, align 4, !tbaa !9
  %51 = icmp ne i32 %50, 0
  br i1 %51, label %52, label %54

52:                                               ; preds = %49
  %53 = load ptr, ptr %7, align 8, !tbaa !164
  call void @strbuf_addch(ptr noundef %53, i32 noundef 32)
  br label %54

54:                                               ; preds = %52, %49
  %55 = load ptr, ptr %7, align 8, !tbaa !164
  %56 = load ptr, ptr @diff_queued_diff, align 8, !tbaa !182
  %57 = load i32, ptr %10, align 4, !tbaa !9
  %58 = sext i32 %57 to i64
  %59 = getelementptr inbounds ptr, ptr %56, i64 %58
  %60 = load ptr, ptr %59, align 8, !tbaa !183
  %61 = getelementptr inbounds nuw %struct.diff_filepair, ptr %60, i32 0, i32 1
  %62 = load ptr, ptr %61, align 8, !tbaa !185
  %63 = getelementptr inbounds nuw %struct.diff_filespec, ptr %62, i32 0, i32 1
  %64 = load ptr, ptr %63, align 8, !tbaa !189
  call void @strbuf_addstr(ptr noundef %55, ptr noundef %64)
  br label %65

65:                                               ; preds = %54
  %66 = load i32, ptr %10, align 4, !tbaa !9
  %67 = add nsw i32 %66, 1
  store i32 %67, ptr %10, align 4, !tbaa !9
  br label %40, !llvm.loop !192

68:                                               ; preds = %47
  call void @diff_flush(ptr noundef %11)
  %69 = getelementptr inbounds nuw %struct.diff_options, ptr %11, i32 0, i32 13
  %70 = getelementptr inbounds nuw %struct.diff_flags, ptr %69, i32 0, i32 9
  %71 = load i32, ptr %70, align 4, !tbaa !193
  %72 = icmp ne i32 %71, 0
  %73 = zext i1 %72 to i32
  store i32 %73, ptr %4, align 4
  store i32 1, ptr %12, align 4
  call void @llvm.lifetime.end.p0(i64 592, ptr %11) #12
  br label %114

74:                                               ; preds = %25
  %75 = load ptr, ptr %8, align 8, !tbaa !4
  call void @ensure_full_index(ptr noundef %75)
  store i32 0, ptr %10, align 4, !tbaa !9
  br label %76

76:                                               ; preds = %103, %74
  %77 = load ptr, ptr %7, align 8, !tbaa !164
  %78 = icmp ne ptr %77, null
  br i1 %78, label %79, label %85

79:                                               ; preds = %76
  %80 = load i32, ptr %10, align 4, !tbaa !9
  %81 = load ptr, ptr %8, align 8, !tbaa !4
  %82 = getelementptr inbounds nuw %struct.index_state, ptr %81, i32 0, i32 2
  %83 = load i32, ptr %82, align 4, !tbaa !34
  %84 = icmp ult i32 %80, %83
  br label %85

85:                                               ; preds = %79, %76
  %86 = phi i1 [ false, %76 ], [ %84, %79 ]
  br i1 %86, label %87, label %106

87:                                               ; preds = %85
  %88 = load i32, ptr %10, align 4, !tbaa !9
  %89 = icmp ne i32 %88, 0
  br i1 %89, label %90, label %92

90:                                               ; preds = %87
  %91 = load ptr, ptr %7, align 8, !tbaa !164
  call void @strbuf_addch(ptr noundef %91, i32 noundef 32)
  br label %92

92:                                               ; preds = %90, %87
  %93 = load ptr, ptr %7, align 8, !tbaa !164
  %94 = load ptr, ptr %8, align 8, !tbaa !4
  %95 = getelementptr inbounds nuw %struct.index_state, ptr %94, i32 0, i32 0
  %96 = load ptr, ptr %95, align 8, !tbaa !13
  %97 = load i32, ptr %10, align 4, !tbaa !9
  %98 = sext i32 %97 to i64
  %99 = getelementptr inbounds ptr, ptr %96, i64 %98
  %100 = load ptr, ptr %99, align 8, !tbaa !29
  %101 = getelementptr inbounds nuw %struct.cache_entry, ptr %100, i32 0, i32 8
  %102 = getelementptr inbounds [0 x i8], ptr %101, i64 0, i64 0
  call void @strbuf_addstr(ptr noundef %93, ptr noundef %102)
  br label %103

103:                                              ; preds = %92
  %104 = load i32, ptr %10, align 4, !tbaa !9
  %105 = add nsw i32 %104, 1
  store i32 %105, ptr %10, align 4, !tbaa !9
  br label %76, !llvm.loop !194

106:                                              ; preds = %85
  %107 = load ptr, ptr %8, align 8, !tbaa !4
  %108 = getelementptr inbounds nuw %struct.index_state, ptr %107, i32 0, i32 2
  %109 = load i32, ptr %108, align 4, !tbaa !34
  %110 = icmp ne i32 %109, 0
  %111 = xor i1 %110, true
  %112 = xor i1 %111, true
  %113 = zext i1 %112 to i32
  store i32 %113, ptr %4, align 4
  store i32 1, ptr %12, align 4
  br label %114

114:                                              ; preds = %106, %68
  call void @llvm.lifetime.end.p0(i64 4, ptr %10) #12
  call void @llvm.lifetime.end.p0(i64 36, ptr %9) #12
  call void @llvm.lifetime.end.p0(i64 8, ptr %8) #12
  %115 = load i32, ptr %4, align 4
  ret i32 %115
}