; Function Attrs: nounwind uwtable
define dso_local range(i32 0, 2) i32 @repo_index_has_changes(ptr noundef %0, ptr noundef readonly %1, ptr noundef %2) local_unnamed_addr #0 {
  %4 = alloca %struct.object_id, align 4
  %5 = alloca %struct.diff_options, align 8
  %6 = getelementptr inbounds nuw i8, ptr %0, i64 384
  %7 = load ptr, ptr %6, align 8, !tbaa !82
  call void @llvm.lifetime.start.p0(i64 36, ptr nonnull %4) #30
  %.not = icmp eq ptr %1, null
  br i1 %.not, label %.critedge34, label %8

8:                                                ; preds = %3
  %9 = getelementptr inbounds nuw i8, ptr %1, i64 4
  call void @llvm.memcpy.p0.p0.i64(ptr noundef nonnull align 4 dereferenceable(36) %4, ptr noundef nonnull align 4 dereferenceable(36) %9, i64 36, i1 false), !tbaa.struct !144
  br label %11

.critedge34:                                      ; preds = %3
  %10 = call i32 @repo_get_oid_tree(ptr noundef nonnull %0, ptr noundef nonnull @.str.3, ptr noundef nonnull %4) #30
  %.not29 = icmp eq i32 %10, 0
  br i1 %.not29, label %11, label %47

11:                                               ; preds = %8, %.critedge34
  call void @llvm.lifetime.start.p0(i64 592, ptr nonnull %5) #30
  call void @repo_diff_setup(ptr noundef nonnull %0, ptr noundef nonnull %5) #30
  %12 = getelementptr inbounds nuw i8, ptr %5, i64 148
  store i32 1, ptr %12, align 4, !tbaa !145
  %13 = icmp ne ptr %2, null
  br i1 %13, label %16, label %14

14:                                               ; preds = %11
  %15 = getelementptr inbounds nuw i8, ptr %5, i64 136
  store i32 1, ptr %15, align 8, !tbaa !155
  br label %16

16:                                               ; preds = %14, %11
  call void @diff_setup_done(ptr noundef nonnull %5) #30
  %17 = call i32 @do_diff_cache(ptr noundef nonnull %4, ptr noundef nonnull %5) #30
  call void @diffcore_std(ptr noundef nonnull %5) #30
  %18 = load i32, ptr getelementptr inbounds nuw (i8, ptr @diff_queued_diff, i64 12), align 4
  %19 = icmp sgt i32 %18, 0
  %20 = select i1 %13, i1 %19, i1 false
  br i1 %20, label %.lr.ph50, label %._crit_edge

.lr.ph50:                                         ; preds = %16
  %21 = getelementptr inbounds nuw i8, ptr %2, i64 8
  %22 = getelementptr inbounds nuw i8, ptr %2, i64 16
  br label %23

23:                                               ; preds = %.lr.ph50, %33
  %indvars.iv53 = phi i64 [ 0, %.lr.ph50 ], [ %indvars.iv.next54, %33 ]
  %.not32 = icmp eq i64 %indvars.iv53, 0
  br i1 %.not32, label %33, label %24

24:                                               ; preds = %23
  %25 = load i64, ptr %2, align 8, !tbaa !156
  %.not.i.i = icmp eq i64 %25, 0
  br i1 %.not.i.i, label %strbuf_avail.exit.thread.i, label %strbuf_avail.exit.i

strbuf_avail.exit.i:                              ; preds = %24
  %26 = load i64, ptr %21, align 8, !tbaa !73
  %.neg.i = add i64 %26, 1
  %.not.i = icmp eq i64 %25, %.neg.i
  br i1 %.not.i, label %strbuf_avail.exit.thread.i, label %strbuf_addch.exit

strbuf_avail.exit.thread.i:                       ; preds = %strbuf_avail.exit.i, %24
  call void @strbuf_grow(ptr noundef nonnull %2, i64 noundef 1) #30
  %.pre.i = load i64, ptr %21, align 8, !tbaa !73
  %.pre7.i = add i64 %.pre.i, 1
  br label %strbuf_addch.exit

strbuf_addch.exit:                                ; preds = %strbuf_avail.exit.i, %strbuf_avail.exit.thread.i
  %.pre-phi.i = phi i64 [ %.pre7.i, %strbuf_avail.exit.thread.i ], [ %.neg.i, %strbuf_avail.exit.i ]
  %27 = phi i64 [ %.pre.i, %strbuf_avail.exit.thread.i ], [ %26, %strbuf_avail.exit.i ]
  %28 = load ptr, ptr %22, align 8, !tbaa !75
  store i64 %.pre-phi.i, ptr %21, align 8, !tbaa !73
  %29 = getelementptr inbounds nuw i8, ptr %28, i64 %27
  store i8 32, ptr %29, align 1, !tbaa !38
  %30 = load ptr, ptr %22, align 8, !tbaa !75
  %31 = load i64, ptr %21, align 8, !tbaa !73
  %32 = getelementptr inbounds nuw i8, ptr %30, i64 %31
  store i8 0, ptr %32, align 1, !tbaa !38
  br label %33

33:                                               ; preds = %strbuf_addch.exit, %23
  %34 = load ptr, ptr @diff_queued_diff, align 8, !tbaa !157
  %35 = getelementptr inbounds nuw ptr, ptr %34, i64 %indvars.iv53
  %36 = load ptr, ptr %35, align 8, !tbaa !160
  %37 = getelementptr inbounds nuw i8, ptr %36, i64 8
  %38 = load ptr, ptr %37, align 8, !tbaa !162
  %39 = getelementptr inbounds nuw i8, ptr %38, i64 40
  %40 = load ptr, ptr %39, align 8, !tbaa !166
  %41 = call i64 @strlen(ptr noundef nonnull dereferenceable(1) %40) #29
  call void @strbuf_add(ptr noundef nonnull %2, ptr noundef nonnull %40, i64 noundef %41) #30
  %indvars.iv.next54 = add nuw nsw i64 %indvars.iv53, 1
  %42 = load i32, ptr getelementptr inbounds nuw (i8, ptr @diff_queued_diff, i64 12), align 4
  %43 = sext i32 %42 to i64
  %44 = icmp slt i64 %indvars.iv.next54, %43
  br i1 %44, label %23, label %._crit_edge, !llvm.loop !169

._crit_edge:                                      ; preds = %33, %16
  call void @diff_flush(ptr noundef nonnull %5) #30
  %45 = getelementptr inbounds nuw i8, ptr %5, i64 132
  %46 = load i32, ptr %45, align 4, !tbaa !170
  call void @llvm.lifetime.end.p0(i64 592, ptr nonnull %5) #30
  br label %.critedge

47:                                               ; preds = %.critedge34
  call void @ensure_full_index(ptr noundef %7) #30
  %48 = getelementptr inbounds nuw i8, ptr %7, i64 12
  %.not30 = icmp eq ptr %2, null
  %.pre = load i32, ptr %48, align 4, !tbaa !34
  br i1 %.not30, label %.critedge, label %.lr.ph

.lr.ph:                                           ; preds = %47
  %49 = getelementptr inbounds nuw i8, ptr %2, i64 8
  %50 = getelementptr inbounds nuw i8, ptr %2, i64 16
  %.not51 = icmp eq i32 %.pre, 0
  br i1 %.not51, label %.critedge, label %.lr.ph48

.lr.ph48:                                         ; preds = %.lr.ph, %60
  %indvars.iv = phi i64 [ %indvars.iv.next, %60 ], [ 0, %.lr.ph ]
  %.not31 = icmp eq i64 %indvars.iv, 0
  br i1 %.not31, label %60, label %51

51:                                               ; preds = %.lr.ph48
  %52 = load i64, ptr %2, align 8, !tbaa !156
  %.not.i.i35 = icmp eq i64 %52, 0
  br i1 %.not.i.i35, label %strbuf_avail.exit.thread.i40, label %strbuf_avail.exit.i36

strbuf_avail.exit.i36:                            ; preds = %51
  %53 = load i64, ptr %49, align 8, !tbaa !73
  %.neg.i37 = add i64 %53, 1
  %.not.i38 = icmp eq i64 %52, %.neg.i37
  br i1 %.not.i38, label %strbuf_avail.exit.thread.i40, label %strbuf_addch.exit44

strbuf_avail.exit.thread.i40:                     ; preds = %strbuf_avail.exit.i36, %51
  call void @strbuf_grow(ptr noundef nonnull %2, i64 noundef 1) #30
  %.pre.i42 = load i64, ptr %49, align 8, !tbaa !73
  %.pre7.i43 = add i64 %.pre.i42, 1
  br label %strbuf_addch.exit44

strbuf_addch.exit44:                              ; preds = %strbuf_avail.exit.i36, %strbuf_avail.exit.thread.i40
  %.pre-phi.i39 = phi i64 [ %.pre7.i43, %strbuf_avail.exit.thread.i40 ], [ %.neg.i37, %strbuf_avail.exit.i36 ]
  %54 = phi i64 [ %.pre.i42, %strbuf_avail.exit.thread.i40 ], [ %53, %strbuf_avail.exit.i36 ]
  %55 = load ptr, ptr %50, align 8, !tbaa !75
  store i64 %.pre-phi.i39, ptr %49, align 8, !tbaa !73
  %56 = getelementptr inbounds nuw i8, ptr %55, i64 %54
  store i8 32, ptr %56, align 1, !tbaa !38
  %57 = load ptr, ptr %50, align 8, !tbaa !75
  %58 = load i64, ptr %49, align 8, !tbaa !73
  %59 = getelementptr inbounds nuw i8, ptr %57, i64 %58
  store i8 0, ptr %59, align 1, !tbaa !38
  br label %60

60:                                               ; preds = %strbuf_addch.exit44, %.lr.ph48
  %61 = load ptr, ptr %7, align 8, !tbaa !4
  %62 = getelementptr inbounds nuw ptr, ptr %61, i64 %indvars.iv
  %63 = load ptr, ptr %62, align 8, !tbaa !25
  %64 = getelementptr inbounds nuw i8, ptr %63, i64 108
  %65 = call i64 @strlen(ptr noundef nonnull dereferenceable(1) %64) #29
  call void @strbuf_add(ptr noundef nonnull %2, ptr noundef nonnull %64, i64 noundef %65) #30
  %indvars.iv.next = add nuw nsw i64 %indvars.iv, 1
  %66 = load i32, ptr %48, align 4, !tbaa !34
  %67 = zext i32 %66 to i64
  %68 = icmp samesign ult i64 %indvars.iv.next, %67
  br i1 %68, label %.lr.ph48, label %.critedge

.critedge:                                        ; preds = %60, %47, %.lr.ph, %._crit_edge
  %.025.in.in = phi i32 [ %46, %._crit_edge ], [ 0, %.lr.ph ], [ %.pre, %47 ], [ %66, %60 ]
  %.025.in = icmp ne i32 %.025.in.in, 0
  %.025 = zext i1 %.025.in to i32
  call void @llvm.lifetime.end.p0(i64 36, ptr nonnull %4) #30
  ret i32 %.025
}